ccopy_reg
_reconstructor
p0
(csklearn.feature_extraction.text
CountVectorizer
p1
c__builtin__
object
p2
Ntp3
Rp4
(dp5
S'decode_error'
p6
Vstrict
p7
sS'lowercase'
p8
I01
sS'stop_words'
p9
NsS'tokenizer'
p10
NsS'vocabulary'
p11
NsS'encoding'
p12
Vutf-8
p13
sS'token_pattern'
p14
V(?u)\u005cb\u005cw\u005cw+\u005cb
p15
sS'analyzer'
p16
Vword
p17
sS'binary'
p18
I00
sS'ngram_range'
p19
(I1
I1
tp20
sS'preprocessor'
p21
NsS'max_df'
p22
F1.0
sS'min_df'
p23
I1
sS'max_features'
p24
NsS'input'
p25
Vcontent
p26
sS'dtype'
p27
cnumpy
int64
p28
sS'_sklearn_version'
p29
S'0.19.1'
p30
sS'strip_accents'
p31
Nsb.